; Function Attrs: mustprogress nounwind uwtable
define hidden void @_ZN11G1MMUTracer10report_mmuEddd(double noundef %0, double noundef %1, double noundef %2) local_unnamed_addr #0 align 2 {
  %4 = alloca %class.EventG1MMU, align 8
  call void @llvm.lifetime.start.p0(i64 48, ptr nonnull %4)
  %5 = getelementptr inbounds i8, ptr %4, i64 8
  call void @llvm.memset.p0.i64(ptr noundef nonnull align 8 dereferenceable(11) %5, i8 0, i64 11, i1 false)
  %6 = load i8, ptr getelementptr inbounds (i8, ptr @_ZN15JfrEventSetting19_jvm_event_settingsE, i64 1241), align 1
  %.not.i.not.i = icmp eq i8 %6, 0
  br i1 %.not.i.not.i, label %_ZN11G1MMUTracer17send_g1_mmu_eventEddd.exit, label %7

7:                                                ; preds = %3
  %8 = fmul double %2, 1.000000e+03
  %9 = fmul double %1, 1.000000e+03
  %10 = fmul double %0, 1.000000e+03
  %11 = getelementptr inbounds i8, ptr %4, i64 18
  %12 = getelementptr inbounds i8, ptr %4, i64 17
  %13 = tail call noundef i64 @_ZN33FastUnorderedElapsedCounterSource3nowEv() #11
  store i64 %13, ptr %4, align 8
  store i8 1, ptr %12, align 1
  store i8 1, ptr %11, align 2
  %14 = tail call noundef i32 @_ZN4GCId7currentEv() #11
  %15 = getelementptr inbounds i8, ptr %4, i64 20
  store i32 %14, ptr %15, align 4
  %16 = fptosi double %10 to i64
  %17 = getelementptr inbounds i8, ptr %4, i64 24
  store i64 %16, ptr %17, align 8
  %18 = fptosi double %9 to i64
  %19 = getelementptr inbounds i8, ptr %4, i64 32
  store i64 %18, ptr %19, align 8
  %20 = fptosi double %8 to i64
  %21 = getelementptr inbounds i8, ptr %4, i64 40
  store i64 %20, ptr %21, align 8
  call void @_ZN8JfrEventI10EventG1MMUE6commitEv(ptr noundef nonnull align 8 dereferenceable(19) %4)
  br label %_ZN11G1MMUTracer17send_g1_mmu_eventEddd.exit

_ZN11G1MMUTracer17send_g1_mmu_eventEddd.exit:     ; preds = %3, %7
  call void @llvm.lifetime.end.p0(i64 48, ptr nonnull %4)
  ret void
}